(dp0
S'show_imports'
p1
I0
sS'prj_name'
p2
S''
p3
sS'docformat'
p4
S'epytext'
p5
sS'inheritance'
p6
S'grouped'
p7
sS'help'
p8
NsS'modules'
p9
(S'/home/mathieu/GIT/projet-IPI/Enemy.py'
p10
S'/home/mathieu/GIT/projet-IPI/Player.py'
p11
S'/home/mathieu/GIT/projet-IPI/Shot.py'
p12
S'/home/mathieu/GIT/projet-IPI/HUD.py'
p13
S'/home/mathieu/GIT/projet-IPI/Level.py'
p14
S'/home/mathieu/GIT/projet-IPI/PyTry/Button.py'
p15
S'/home/mathieu/GIT/projet-IPI/PyTry/Item.py'
p16
S'/home/mathieu/GIT/projet-IPI/PyTry/KeyBinder.py'
p17
S'/home/mathieu/GIT/projet-IPI/PyTry/Menu.py'
p18
S'/home/mathieu/GIT/projet-IPI/PyTry/Object.py'
p19
S'/home/mathieu/GIT/projet-IPI/PyTry/ProgressBar.py'
p20
S'/home/mathieu/GIT/projet-IPI/PyTry/Tools.py'
p21
tp22
sS'private'
p23
I1
sS'prj_url'
p24
NsS'introspect_or_parse'
p25
S'both'
p26
sS'frames'
p27
I1
sS'css'
p28
S'/home/mathieu/GIT/projet-IPI/epydoc.css'
p29
sS'target'
p30
S'html'
p31
s.